; Function Attrs: mustprogress uwtable
define internal void @_ZL17ssl_info_callbackPK6ssl_stii(ptr noundef %0, i32 noundef %1, i32 noundef %2) #3 personality ptr @__gxx_personality_v0 {
  %4 = alloca %"class.absl::lts_20240722::log_internal::LogMessage", align 8
  %5 = icmp eq i32 %2, 0
  br i1 %5, label %6, label %9

6:                                                ; preds = %3
  call void @llvm.lifetime.start.p0(i64 16, ptr nonnull %4) #32
  call void @_ZN4absl12lts_2024072212log_internal10LogMessageC1EPKciNS2_8ErrorTagE(ptr noundef nonnull align 8 dereferenceable(16) %4, ptr noundef nonnull @.str.1, i32 noundef 245) #33
  invoke void @_ZN4absl12lts_2024072212log_internal10LogMessage19CopyToEncodedBufferILNS2_10StringTypeE0EEEvSt17basic_string_viewIcSt11char_traitsIcEE(ptr noundef nonnull align 8 dereferenceable(16) %4, i64 35, ptr nonnull @.str.50)
          to label %_ZN4absl12lts_2024072212log_internal10LogMessagelsILi36EEERS2_RAT__Kc.exit unwind label %7

_ZN4absl12lts_2024072212log_internal10LogMessagelsILi36EEERS2_RAT__Kc.exit: ; preds = %6
  call void @_ZN4absl12lts_2024072212log_internal10LogMessageD1Ev(ptr noundef nonnull align 8 dereferenceable(16) %4) #34
  call void @llvm.lifetime.end.p0(i64 16, ptr nonnull %4) #32
  br label %10

7:                                                ; preds = %6
  %8 = landingpad { ptr, i32 }
          cleanup
  call void @_ZN4absl12lts_2024072212log_internal10LogMessageD1Ev(ptr noundef nonnull align 8 dereferenceable(16) %4) #34
  call void @llvm.lifetime.end.p0(i64 16, ptr nonnull %4) #32
  resume { ptr, i32 } %8

9:                                                ; preds = %3
  tail call fastcc void @_ZL18ssl_log_where_infoPK6ssl_stiiPKc(ptr noundef %0, i32 noundef %1, i32 noundef 1, ptr noundef nonnull @.str.51)
  tail call fastcc void @_ZL18ssl_log_where_infoPK6ssl_stiiPKc(ptr noundef %0, i32 noundef %1, i32 noundef 16, ptr noundef nonnull @.str.52)
  tail call fastcc void @_ZL18ssl_log_where_infoPK6ssl_stiiPKc(ptr noundef %0, i32 noundef %1, i32 noundef 32, ptr noundef nonnull @.str.53)
  br label %10

10:                                               ; preds = %9, %_ZN4absl12lts_2024072212log_internal10LogMessagelsILi36EEERS2_RAT__Kc.exit
  ret void
}